target datalayout = "e-m:e-p270:32:32-p271:32:32-p272:64:64-i64:64-i128:128-f80:128-n8:16:32:64-S128"
target triple = "x86_64-pc-linux-gnu"

; Function Attrs: mustprogress nounwind uwtable
define void @_ZN3gmx26linearArrayIndexToMultiDimEiiPKiPi(i32 noundef %0, i32 noundef %1, ptr noundef %2, ptr noundef %3) #1 {
  %5 = alloca i32, align 4
  %6 = alloca i32, align 4
  %7 = alloca ptr, align 8
  %8 = alloca ptr, align 8
  %9 = alloca i32, align 4
  %10 = alloca i32, align 4
  %11 = alloca i32, align 4
  store i32 %0, ptr %5, align 4
  store i32 %1, ptr %6, align 4
  store ptr %2, ptr %7, align 8
  store ptr %3, ptr %8, align 8
  store i32 0, ptr %9, align 4
  br label %12

12:                                               ; preds = %51, %4
  %13 = load i32, ptr %9, align 4
  %14 = load i32, ptr %6, align 4
  %15 = icmp slt i32 %13, %14
  br i1 %15, label %16, label %54

16:                                               ; preds = %12
  store i32 1, ptr %10, align 4
  %17 = load i32, ptr %9, align 4
  %18 = add nsw i32 %17, 1
  store i32 %18, ptr %11, align 4
  br label %19

19:                                               ; preds = %31, %16
  %20 = load i32, ptr %11, align 4
  %21 = load i32, ptr %6, align 4
  %22 = icmp slt i32 %20, %21
  br i1 %22, label %23, label %34

23:                                               ; preds = %19
  %24 = load ptr, ptr %7, align 8
  %25 = load i32, ptr %11, align 4
  %26 = sext i32 %25 to i64
  %27 = getelementptr inbounds i32, ptr %24, i64 %26
  %28 = load i32, ptr %27, align 4
  %29 = load i32, ptr %10, align 4
  %30 = mul nsw i32 %29, %28
  store i32 %30, ptr %10, align 4
  br label %31

31:                                               ; preds = %23
  %32 = load i32, ptr %11, align 4
  %33 = add nsw i32 %32, 1
  store i32 %33, ptr %11, align 4
  br label %19, !llvm.loop !9

34:                                               ; preds = %19
  %35 = load i32, ptr %5, align 4
  %36 = load i32, ptr %10, align 4
  %37 = sdiv i32 %35, %36
  %38 = load ptr, ptr %8, align 8
  %39 = load i32, ptr %9, align 4
  %40 = sext i32 %39 to i64
  %41 = getelementptr inbounds i32, ptr %38, i64 %40
  store i32 %37, ptr %41, align 4
  %42 = load ptr, ptr %8, align 8
  %43 = load i32, ptr %9, align 4
  %44 = sext i32 %43 to i64
  %45 = getelementptr inbounds i32, ptr %42, i64 %44
  %46 = load i32, ptr %45, align 4
  %47 = load i32, ptr %10, align 4
  %48 = mul nsw i32 %46, %47
  %49 = load i32, ptr %5, align 4
  %50 = sub nsw i32 %49, %48
  store i32 %50, ptr %5, align 4
  br label %51

51:                                               ; preds = %34
  %52 = load i32, ptr %9, align 4
  %53 = add nsw i32 %52, 1
  store i32 %53, ptr %9, align 4
  br label %12, !llvm.loop !10

54:                                               ; preds = %12
  ret void
}