; Function Attrs: mustprogress nofree norecurse nosync nounwind memory(argmem: readwrite) uwtable
define void @_ZN3gmx26linearArrayIndexToMultiDimEiiPKiPi(i32 noundef %0, i32 noundef %1, ptr nocapture noundef readonly %2, ptr nocapture noundef writeonly %3) local_unnamed_addr #2 {
  %5 = icmp sgt i32 %1, 0
  br i1 %5, label %.lr.ph26.preheader, label %._crit_edge27

.lr.ph26.preheader:                               ; preds = %4
  %6 = zext nneg i32 %1 to i64
  %wide.trip.count34 = zext nneg i32 %1 to i64
  br label %.lr.ph26

.lr.ph26:                                         ; preds = %.lr.ph26.preheader, %._crit_edge
  %indvars.iv31 = phi i64 [ 0, %.lr.ph26.preheader ], [ %indvars.iv.next32, %._crit_edge ]
  %indvars.iv = phi i64 [ 1, %.lr.ph26.preheader ], [ %indvars.iv.next, %._crit_edge ]
  %.01923 = phi i32 [ %0, %.lr.ph26.preheader ], [ %.recomposed, %._crit_edge ]
  %indvars.iv.next32 = add nuw nsw i64 %indvars.iv31, 1
  %7 = icmp ult i64 %indvars.iv.next32, %6
  br i1 %7, label %.lr.ph, label %._crit_edge

.lr.ph:                                           ; preds = %.lr.ph26, %.lr.ph
  %indvars.iv28 = phi i64 [ %indvars.iv.next29, %.lr.ph ], [ %indvars.iv, %.lr.ph26 ]
  %.01721 = phi i32 [ %10, %.lr.ph ], [ 1, %.lr.ph26 ]
  %8 = getelementptr inbounds i32, ptr %2, i64 %indvars.iv28
  %9 = load i32, ptr %8, align 4
  %10 = mul nsw i32 %9, %.01721
  %indvars.iv.next29 = add nuw nsw i64 %indvars.iv28, 1
  %exitcond.not = icmp eq i64 %indvars.iv.next29, %wide.trip.count34
  br i1 %exitcond.not, label %._crit_edge, label %.lr.ph, !llvm.loop !9

._crit_edge:                                      ; preds = %.lr.ph, %.lr.ph26
  %.017.lcssa = phi i32 [ 1, %.lr.ph26 ], [ %10, %.lr.ph ]
  %11 = sdiv i32 %.01923, %.017.lcssa
  %12 = getelementptr inbounds i32, ptr %3, i64 %indvars.iv31
  store i32 %11, ptr %12, align 4
  %13 = mul nsw i32 %11, %.017.lcssa
  %.recomposed = srem i32 %.01923, %.017.lcssa
  %indvars.iv.next = add nuw nsw i64 %indvars.iv, 1
  %exitcond35.not = icmp eq i64 %indvars.iv.next32, %wide.trip.count34
  br i1 %exitcond35.not, label %._crit_edge27, label %.lr.ph26, !llvm.loop !10

._crit_edge27:                                    ; preds = %._crit_edge, %4
  ret void
}